target datalayout = "e-m:e-p270:32:32-p271:32:32-p272:64:64-i64:64-i128:128-f80:128-n8:16:32:64-S128"
target triple = "x86_64-pc-linux-gnu"

%struct.PJconsts = type { ptr, ptr, ptr, ptr, ptr, ptr, ptr, ptr, ptr, ptr, ptr, ptr, i32, ptr, ptr, ptr, ptr, ptr, ptr, ptr, ptr, double, double, double, double, double, double, double, double, double, double, double, double, double, double, double, double, double, double, double, double, double, double, i32, i32, i32, i32, i32, i32, i32, i32, i32, i32, i32, ptr, ptr, ptr, ptr, ptr, ptr, double, double, double, double, double, double, double, double, double, double, double, i32, [7 x double], i32, ptr, ptr, double, double, i32, [4 x i8], %"class.std::shared_ptr", i8, double, i8, %"class.std::__cxx11::basic_string", %"class.std::__cxx11::basic_string", %"class.std::__cxx11::basic_string", i8, %"class.std::vector", i32, %"class.std::vector.3", i32, i8, i8, i8, ptr }
%"class.std::shared_ptr" = type { %"class.std::__shared_ptr" }
%"class.std::__shared_ptr" = type { ptr, %"class.std::__shared_count" }
%"class.std::__shared_count" = type { ptr }
%"class.std::__cxx11::basic_string" = type { %"struct.std::__cxx11::basic_string<char>::_Alloc_hider", i64, %union.anon }
%"struct.std::__cxx11::basic_string<char>::_Alloc_hider" = type { ptr }
%union.anon = type { i64, [8 x i8] }
%"class.std::vector" = type { %"struct.std::_Vector_base" }
%"struct.std::_Vector_base" = type { %"struct.std::_Vector_base<osgeo::proj::operation::GridDescription, std::allocator<osgeo::proj::operation::GridDescription>>::_Vector_impl" }
%"struct.std::_Vector_base<osgeo::proj::operation::GridDescription, std::allocator<osgeo::proj::operation::GridDescription>>::_Vector_impl" = type { %"struct.std::_Vector_base<osgeo::proj::operation::GridDescription, std::allocator<osgeo::proj::operation::GridDescription>>::_Vector_impl_data" }
%"struct.std::_Vector_base<osgeo::proj::operation::GridDescription, std::allocator<osgeo::proj::operation::GridDescription>>::_Vector_impl_data" = type { ptr, ptr, ptr }
%"class.std::vector.3" = type { %"struct.std::_Vector_base.4" }
%"struct.std::_Vector_base.4" = type { %"struct.std::_Vector_base<PJCoordOperation, std::allocator<PJCoordOperation>>::_Vector_impl" }
%"struct.std::_Vector_base<PJCoordOperation, std::allocator<PJCoordOperation>>::_Vector_impl" = type { %"struct.std::_Vector_base<PJCoordOperation, std::allocator<PJCoordOperation>>::_Vector_impl_data" }
%"struct.std::_Vector_base<PJCoordOperation, std::allocator<PJCoordOperation>>::_Vector_impl_data" = type { ptr, ptr, ptr }
%struct.PJ_LP = type { double, double }
%struct.PJ_XY = type { double, double }

; Function Attrs: mustprogress uwtable
define internal { double, double } @_ZL17calcofi_e_inverse5PJ_XYP8PJconsts(double %0, double %1, ptr noundef %2) #0 {
  %4 = alloca %struct.PJ_LP, align 8
  %5 = alloca %struct.PJ_XY, align 8
  %6 = alloca ptr, align 8
  %7 = alloca double, align 8
  %8 = alloca double, align 8
  %9 = alloca double, align 8
  %10 = alloca double, align 8
  %11 = alloca double, align 8
  %12 = alloca double, align 8
  %13 = getelementptr inbounds nuw { double, double }, ptr %5, i32 0, i32 0
  store double %0, ptr %13, align 8
  %14 = getelementptr inbounds nuw { double, double }, ptr %5, i32 0, i32 1
  store double %1, ptr %14, align 8
  store ptr %2, ptr %6, align 8, !tbaa !3
  call void @llvm.memset.p0.i64(ptr align 8 %4, i8 0, i64 16, i1 false)
  call void @llvm.lifetime.start.p0(i64 8, ptr %7) #7
  call void @llvm.lifetime.start.p0(i64 8, ptr %8) #7
  call void @llvm.lifetime.start.p0(i64 8, ptr %9) #7
  call void @llvm.lifetime.start.p0(i64 8, ptr %10) #7
  call void @llvm.lifetime.start.p0(i64 8, ptr %11) #7
  call void @llvm.lifetime.start.p0(i64 8, ptr %12) #7
  %15 = getelementptr inbounds nuw %struct.PJ_XY, ptr %5, i32 0, i32 0
  %16 = load double, ptr %15, align 8, !tbaa !51
  %17 = fsub double %16, 8.000000e+01
  %18 = fmul double 0x3F6C987103B761F5, %17
  %19 = call double @cos(double noundef 0x3FE0C152382D7365) #7, !tbaa !53
  %20 = fneg double %18
  %21 = call double @llvm.fmuladd.f64(double %20, double %19, double 0x3FE312AD613A9096)
  store double %21, ptr %7, align 8, !tbaa !54
  %22 = load double, ptr %7, align 8, !tbaa !54
  %23 = getelementptr inbounds nuw %struct.PJ_XY, ptr %5, i32 0, i32 1
  %24 = load double, ptr %23, align 8, !tbaa !55
  %25 = fsub double %24, 6.000000e+01
  %26 = fmul double 0x3F53104B57CF96A3, %25
  %27 = call double @sin(double noundef 0x3FE0C152382D7365) #7, !tbaa !53
  %28 = fneg double %26
  %29 = call double @llvm.fmuladd.f64(double %28, double %27, double %22)
  %30 = getelementptr inbounds nuw %struct.PJ_LP, ptr %4, i32 0, i32 1
  store double %29, ptr %30, align 8, !tbaa !56
  %31 = call double @sin(double noundef 0x3FE312AD613A9096) #7, !tbaa !53
  %32 = load ptr, ptr %6, align 8, !tbaa !3
  %33 = getelementptr inbounds nuw %struct.PJconsts, ptr %32, i32 0, i32 26
  %34 = load double, ptr %33, align 8, !tbaa !58
  %35 = call noundef double @_Z7pj_tsfnddd(double noundef 0x3FE312AD613A9096, double noundef %31, double noundef %34)
  %36 = call double @log(double noundef %35) #7, !tbaa !53
  %37 = fneg double %36
  store double %37, ptr %8, align 8, !tbaa !54
  %38 = load double, ptr %7, align 8, !tbaa !54
  %39 = load double, ptr %7, align 8, !tbaa !54
  %40 = call double @sin(double noundef %39) #7, !tbaa !53
  %41 = load ptr, ptr %6, align 8, !tbaa !3
  %42 = getelementptr inbounds nuw %struct.PJconsts, ptr %41, i32 0, i32 26
  %43 = load double, ptr %42, align 8, !tbaa !58
  %44 = call noundef double @_Z7pj_tsfnddd(double noundef %38, double noundef %40, double noundef %43)
  %45 = call double @log(double noundef %44) #7, !tbaa !53
  %46 = fneg double %45
  store double %46, ptr %9, align 8, !tbaa !54
  %47 = getelementptr inbounds nuw %struct.PJ_LP, ptr %4, i32 0, i32 1
  %48 = load double, ptr %47, align 8, !tbaa !56
  %49 = getelementptr inbounds nuw %struct.PJ_LP, ptr %4, i32 0, i32 1
  %50 = load double, ptr %49, align 8, !tbaa !56
  %51 = call double @sin(double noundef %50) #7, !tbaa !53
  %52 = load ptr, ptr %6, align 8, !tbaa !3
  %53 = getelementptr inbounds nuw %struct.PJconsts, ptr %52, i32 0, i32 26
  %54 = load double, ptr %53, align 8, !tbaa !58
  %55 = call noundef double @_Z7pj_tsfnddd(double noundef %48, double noundef %51, double noundef %54)
  %56 = call double @log(double noundef %55) #7, !tbaa !53
  %57 = fneg double %56
  store double %57, ptr %10, align 8, !tbaa !54
  %58 = load double, ptr %10, align 8, !tbaa !54
  %59 = load double, ptr %8, align 8, !tbaa !54
  %60 = fsub double %58, %59
  %61 = call double @tan(double noundef 0x3FE0C152382D7365) #7, !tbaa !53
  %62 = fmul double %60, %61
  store double %62, ptr %11, align 8, !tbaa !54
  %63 = load double, ptr %9, align 8, !tbaa !54
  %64 = load double, ptr %10, align 8, !tbaa !54
  %65 = fsub double %63, %64
  %66 = call double @cos(double noundef 0x3FE0C152382D7365) #7, !tbaa !53
  %67 = call double @sin(double noundef 0x3FE0C152382D7365) #7, !tbaa !53
  %68 = fmul double %66, %67
  %69 = fdiv double %65, %68
  store double %69, ptr %12, align 8, !tbaa !54
  %70 = load double, ptr %11, align 8, !tbaa !54
  %71 = load double, ptr %12, align 8, !tbaa !54
  %72 = fadd double %70, %71
  %73 = fsub double 0xC000EA6D5AA2CB02, %72
  %74 = getelementptr inbounds nuw %struct.PJ_LP, ptr %4, i32 0, i32 0
  store double %73, ptr %74, align 8, !tbaa !59
  call void @llvm.lifetime.end.p0(i64 8, ptr %12) #7
  call void @llvm.lifetime.end.p0(i64 8, ptr %11) #7
  call void @llvm.lifetime.end.p0(i64 8, ptr %10) #7
  call void @llvm.lifetime.end.p0(i64 8, ptr %9) #7
  call void @llvm.lifetime.end.p0(i64 8, ptr %8) #7
  call void @llvm.lifetime.end.p0(i64 8, ptr %7) #7
  %75 = load { double, double }, ptr %4, align 8
  ret { double, double } %75
}