; Function Attrs: mustprogress uwtable
define internal { double, double } @_ZL17calcofi_e_inverse5PJ_XYP8PJconsts(double %0, double %1, ptr noundef readonly captures(none) %2) #0 {
  %4 = fadd double %0, -8.000000e+01
  %5 = fmul double %4, 0xBF6C987103B761F5
  %6 = tail call double @llvm.fmuladd.f64(double %5, double 0x3FEBB67AE8584CAB, double 0x3FE312AD613A9096)
  %7 = fadd double %1, -6.000000e+01
  %8 = fmul double %7, 0xBF53104B57CF96A3
  %9 = tail call double @llvm.fmuladd.f64(double %8, double 0x3FDFFFFFFFFFFFFF, double %6)
  %10 = getelementptr inbounds nuw i8, ptr %2, i64 208
  %11 = load double, ptr %10, align 8, !tbaa !48
  %12 = tail call noundef double @_Z7pj_tsfnddd(double noundef 0x3FE312AD613A9096, double noundef 0x3FE1F6AC2EC1D6AD, double noundef %11)
  %13 = tail call double @log(double noundef %12) #7, !tbaa !49
  %14 = tail call double @sin(double noundef %6) #7, !tbaa !49
  %15 = load double, ptr %10, align 8, !tbaa !48
  %16 = tail call noundef double @_Z7pj_tsfnddd(double noundef %6, double noundef %14, double noundef %15)
  %17 = tail call double @log(double noundef %16) #7, !tbaa !49
  %18 = tail call double @sin(double noundef %9) #7, !tbaa !49
  %19 = load double, ptr %10, align 8, !tbaa !48
  %20 = tail call noundef double @_Z7pj_tsfnddd(double noundef %9, double noundef %18, double noundef %19)
  %21 = tail call double @log(double noundef %20) #7, !tbaa !49
  %22 = fsub double %13, %21
  %23 = fmul double %22, 0x3FE279A74590331C
  %24 = fsub double %21, %17
  %25 = fdiv double %24, 0x3FDBB67AE8584CAA
  %26 = fadd double %23, %25
  %27 = fsub double 0xC000EA6D5AA2CB02, %26
  %.fca.0.insert = insertvalue { double, double } poison, double %27, 0
  %.fca.1.insert = insertvalue { double, double } %.fca.0.insert, double %9, 1
  ret { double, double } %.fca.1.insert
}